; Function Attrs: mustprogress nounwind uwtable
define void @_ZN6icu_7511ICUNotifierD2Ev(ptr nocapture noundef nonnull align 8 dereferenceable(16) %this) unnamed_addr #0 align 2 personality ptr @__gxx_personality_v0 {
entry:
  store ptr getelementptr inbounds ({ [9 x ptr] }, ptr @_ZTVN6icu_7511ICUNotifierE, i64 0, i32 0, i64 2), ptr %this, align 8
  invoke void @umtx_lock_75(ptr noundef nonnull @_ZN6icu_75L10notifyLockE)
          to label %invoke.cont unwind label %terminate.lpad

invoke.cont:                                      ; preds = %entry
  %listeners = getelementptr inbounds i8, ptr %this, i64 8
  %0 = load ptr, ptr %listeners, align 8
  %isnull = icmp eq ptr %0, null
  br i1 %isnull, label %delete.end, label %delete.notnull

delete.notnull:                                   ; preds = %invoke.cont
  %vtable = load ptr, ptr %0, align 8
  %vfn = getelementptr inbounds i8, ptr %vtable, i64 8
  %1 = load ptr, ptr %vfn, align 8
  tail call void %1(ptr noundef nonnull align 8 dereferenceable(40) %0) #9
  br label %delete.end

delete.end:                                       ; preds = %delete.notnull, %invoke.cont
  store ptr null, ptr %listeners, align 8
  invoke void @umtx_unlock_75(ptr noundef nonnull @_ZN6icu_75L10notifyLockE)
          to label %_ZN6icu_755MutexD2Ev.exit unwind label %terminate.lpad.i

terminate.lpad.i:                                 ; preds = %delete.end
  %2 = landingpad { ptr, i32 }
          catch ptr null
  %3 = extractvalue { ptr, i32 } %2, 0
  tail call void @__clang_call_terminate(ptr %3) #10
  unreachable

_ZN6icu_755MutexD2Ev.exit:                        ; preds = %delete.end
  ret void

terminate.lpad:                                   ; preds = %entry
  %4 = landingpad { ptr, i32 }
          catch ptr null
  %5 = extractvalue { ptr, i32 } %4, 0
  tail call void @__clang_call_terminate(ptr %5) #10
  unreachable
}